; Function Attrs: mustprogress nofree norecurse nosync nounwind willreturn memory(read, inaccessiblemem: none) uwtable
define dso_local noundef ptr @_ZNK4llvm15X86RegisterInfo21getSubClassWithSubRegEPKNS_19TargetRegisterClassEj(ptr noundef nonnull readonly align 8 captures(none) dereferenceable(328) %0, ptr noundef readonly %1, i32 noundef %2) unnamed_addr #0 align 2 {
  %4 = getelementptr inbounds nuw i8, ptr %0, i64 308
  %5 = load i8, ptr %4, align 4
  %6 = trunc i8 %5 to i1
  %7 = icmp ne i32 %2, 1
  %or.cond.not = or i1 %7, %6
  %spec.store.select = select i1 %or.cond.not, i32 %2, i32 2
  %.not.i = icmp eq i32 %spec.store.select, 0
  br i1 %.not.i, label %_ZNK4llvm18X86GenRegisterInfo21getSubClassWithSubRegEPKNS_19TargetRegisterClassEj.exit, label %8

8:                                                ; preds = %3
  %9 = add i32 %spec.store.select, -1
  %10 = load ptr, ptr %1, align 8
  %11 = getelementptr inbounds nuw i8, ptr %10, i64 24
  %12 = load i16, ptr %11, align 8
  %13 = zext i16 %12 to i64
  %14 = zext i32 %9 to i64
  %15 = getelementptr inbounds nuw [134 x [10 x i8]], ptr @_ZZNK4llvm18X86GenRegisterInfo21getSubClassWithSubRegEPKNS_19TargetRegisterClassEjE5Table, i64 0, i64 %13, i64 %14
  %16 = load i8, ptr %15, align 1
  %.not10.i = icmp eq i8 %16, 0
  br i1 %.not10.i, label %_ZNK4llvm18X86GenRegisterInfo21getSubClassWithSubRegEPKNS_19TargetRegisterClassEj.exit, label %17

17:                                               ; preds = %8
  %18 = zext i8 %16 to i64
  %19 = add nuw nsw i64 %18, 4294967295
  %20 = getelementptr inbounds nuw i8, ptr %0, i64 264
  %21 = load ptr, ptr %20, align 8
  %22 = and i64 %19, 4294967295
  %23 = getelementptr inbounds nuw ptr, ptr %21, i64 %22
  %24 = load ptr, ptr %23, align 8
  br label %_ZNK4llvm18X86GenRegisterInfo21getSubClassWithSubRegEPKNS_19TargetRegisterClassEj.exit

_ZNK4llvm18X86GenRegisterInfo21getSubClassWithSubRegEPKNS_19TargetRegisterClassEj.exit: ; preds = %3, %8, %17
  %.0.i = phi ptr [ %1, %3 ], [ %24, %17 ], [ null, %8 ]
  ret ptr %.0.i
}